; ModuleID = '21/252.c'
source_filename = "21/252.c"
target datalayout = "e-m:e-p270:32:32-p271:32:32-p272:64:64-i64:64-f80:128-n8:16:32:64-S128"
target triple = "x86_64-pc-linux-gnu"

@.str = private unnamed_addr constant [3 x i8] c"%d\00", align 1
@.str.1 = private unnamed_addr constant [6 x i8] c"%d,%d\00", align 1

; Function Attrs: noinline nounwind uwtable
define dso_local i32 @main() #0 {
  %1 = alloca i32, align 4
  %2 = alloca [301 x float], align 16
  %3 = alloca float, align 4
  %4 = alloca float, align 4
  %5 = alloca [301 x i32], align 16
  %6 = alloca i32, align 4
  %7 = alloca i32, align 4
  %8 = alloca i32, align 4
  %9 = alloca [2 x i32], align 4
  store i32 0, i32* %1, align 4
  store float 0.000000e+00, float* %3, align 4
  store i32 0, i32* %6, align 4
  %10 = bitcast [2 x i32]* %9 to i8*
  call void @llvm.memset.p0i8.i64(i8* align 4 %10, i8 0, i64 8, i1 false)
  %11 = call i32 (i8*, ...) @__isoc99_scanf(i8* getelementptr inbounds ([3 x i8], [3 x i8]* @.str, i64 0, i64 0), i32* %8)
  store i32 0, i32* %7, align 4
  br label %12

12:                                               ; preds = %28, %0
  %13 = load i32, i32* %7, align 4
  %14 = load i32, i32* %8, align 4
  %15 = icmp slt i32 %13, %14
  br i1 %15, label %16, label %31

16:                                               ; preds = %12
  %17 = load i32, i32* %7, align 4
  %18 = sext i32 %17 to i64
  %19 = getelementptr inbounds [301 x i32], [301 x i32]* %5, i64 0, i64 %18
  %20 = call i32 (i8*, ...) @__isoc99_scanf(i8* getelementptr inbounds ([3 x i8], [3 x i8]* @.str, i64 0, i64 0), i32* %19)
  %21 = load float, float* %3, align 4
  %22 = load i32, i32* %7, align 4
  %23 = sext i32 %22 to i64
  %24 = getelementptr inbounds [301 x i32], [301 x i32]* %5, i64 0, i64 %23
  %25 = load i32, i32* %24, align 4
  %26 = sitofp i32 %25 to float
  %27 = fadd float %21, %26
  store float %27, float* %3, align 4
  br label %28

28:                                               ; preds = %16
  %29 = load i32, i32* %7, align 4
  %30 = add nsw i32 %29, 1
  store i32 %30, i32* %7, align 4
  br label %12

31:                                               ; preds = %12
  %32 = load float, float* %3, align 4
  %33 = load i32, i32* %8, align 4
  %34 = sitofp i32 %33 to float
  %35 = fdiv float %32, %34
  store float %35, float* %4, align 4
  store i32 0, i32* %7, align 4
  br label %36

36:                                               ; preds = %54, %31
  %37 = load i32, i32* %7, align 4
  %38 = load i32, i32* %8, align 4
  %39 = icmp slt i32 %37, %38
  br i1 %39, label %40, label %57

40:                                               ; preds = %36
  %41 = load i32, i32* %7, align 4
  %42 = sext i32 %41 to i64
  %43 = getelementptr inbounds [301 x i32], [301 x i32]* %5, i64 0, i64 %42
  %44 = load i32, i32* %43, align 4
  %45 = sitofp i32 %44 to float
  %46 = load float, float* %4, align 4
  %47 = fsub float %45, %46
  %48 = fpext float %47 to double
  %49 = call double @llvm.fabs.f64(double %48)
  %50 = fptrunc double %49 to float
  %51 = load i32, i32* %7, align 4
  %52 = sext i32 %51 to i64
  %53 = getelementptr inbounds [301 x float], [301 x float]* %2, i64 0, i64 %52
  store float %50, float* %53, align 4
  br label %54

54:                                               ; preds = %40
  %55 = load i32, i32* %7, align 4
  %56 = add nsw i32 %55, 1
  store i32 %56, i32* %7, align 4
  br label %36

57:                                               ; preds = %36
  store float 0.000000e+00, float* %3, align 4
  store i32 0, i32* %7, align 4
  br label %58

58:                                               ; preds = %75, %57
  %59 = load i32, i32* %7, align 4
  %60 = load i32, i32* %8, align 4
  %61 = icmp slt i32 %59, %60
  br i1 %61, label %62, label %78

62:                                               ; preds = %58
  %63 = load i32, i32* %7, align 4
  %64 = sext i32 %63 to i64
  %65 = getelementptr inbounds [301 x float], [301 x float]* %2, i64 0, i64 %64
  %66 = load float, float* %65, align 4
  %67 = load float, float* %3, align 4
  %68 = fcmp ogt float %66, %67
  br i1 %68, label %69, label %74

69:                                               ; preds = %62
  %70 = load i32, i32* %7, align 4
  %71 = sext i32 %70 to i64
  %72 = getelementptr inbounds [301 x float], [301 x float]* %2, i64 0, i64 %71
  %73 = load float, float* %72, align 4
  store float %73, float* %3, align 4
  br label %74

74:                                               ; preds = %69, %62
  br label %75

75:                                               ; preds = %74
  %76 = load i32, i32* %7, align 4
  %77 = add nsw i32 %76, 1
  store i32 %77, i32* %7, align 4
  br label %58

78:                                               ; preds = %58
  store i32 0, i32* %7, align 4
  br label %79

79:                                               ; preds = %98, %78
  %80 = load i32, i32* %7, align 4
  %81 = load i32, i32* %8, align 4
  %82 = icmp slt i32 %80, %81
  br i1 %82, label %83, label %101

83:                                               ; preds = %79
  %84 = load i32, i32* %7, align 4
  %85 = sext i32 %84 to i64
  %86 = getelementptr inbounds [301 x float], [301 x float]* %2, i64 0, i64 %85
  %87 = load float, float* %86, align 4
  %88 = load float, float* %3, align 4
  %89 = fcmp oeq float %87, %88
  br i1 %89, label %90, label %97

90:                                               ; preds = %83
  %91 = load i32, i32* %7, align 4
  %92 = load i32, i32* %6, align 4
  %93 = sext i32 %92 to i64
  %94 = getelementptr inbounds [2 x i32], [2 x i32]* %9, i64 0, i64 %93
  store i32 %91, i32* %94, align 4
  %95 = load i32, i32* %6, align 4
  %96 = add nsw i32 %95, 1
  store i32 %96, i32* %6, align 4
  br label %97

97:                                               ; preds = %90, %83
  br label %98

98:                                               ; preds = %97
  %99 = load i32, i32* %7, align 4
  %100 = add nsw i32 %99, 1
  store i32 %100, i32* %7, align 4
  br label %79

101:                                              ; preds = %79
  %102 = getelementptr inbounds [2 x i32], [2 x i32]* %9, i64 0, i64 1
  %103 = load i32, i32* %102, align 4
  %104 = icmp eq i32 %103, 0
  br i1 %104, label %105, label %112

105:                                              ; preds = %101
  %106 = getelementptr inbounds [2 x i32], [2 x i32]* %9, i64 0, i64 0
  %107 = load i32, i32* %106, align 4
  %108 = sext i32 %107 to i64
  %109 = getelementptr inbounds [301 x i32], [301 x i32]* %5, i64 0, i64 %108
  %110 = load i32, i32* %109, align 4
  %111 = call i32 (i8*, ...) @printf(i8* getelementptr inbounds ([3 x i8], [3 x i8]* @.str, i64 0, i64 0), i32 %110)
  br label %124

112:                                              ; preds = %101
  %113 = getelementptr inbounds [2 x i32], [2 x i32]* %9, i64 0, i64 0
  %114 = load i32, i32* %113, align 4
  %115 = sext i32 %114 to i64
  %116 = getelementptr inbounds [301 x i32], [301 x i32]* %5, i64 0, i64 %115
  %117 = load i32, i32* %116, align 4
  %118 = getelementptr inbounds [2 x i32], [2 x i32]* %9, i64 0, i64 1
  %119 = load i32, i32* %118, align 4
  %120 = sext i32 %119 to i64
  %121 = getelementptr inbounds [301 x i32], [301 x i32]* %5, i64 0, i64 %120
  %122 = load i32, i32* %121, align 4
  %123 = call i32 (i8*, ...) @printf(i8* getelementptr inbounds ([6 x i8], [6 x i8]* @.str.1, i64 0, i64 0), i32 %117, i32 %122)
  br label %124

124:                                              ; preds = %112, %105
  %125 = call i32 (i8*, ...) @__isoc99_scanf(i8* getelementptr inbounds ([3 x i8], [3 x i8]* @.str, i64 0, i64 0), i32* %8)
  %126 = load i32, i32* %1, align 4
  ret i32 %126
}

; Function Attrs: argmemonly nounwind willreturn
declare void @llvm.memset.p0i8.i64(i8* nocapture writeonly, i8, i64, i1 immarg) #1

declare dso_local i32 @__isoc99_scanf(i8*, ...) #2

; Function Attrs: nounwind readnone speculatable willreturn
declare double @llvm.fabs.f64(double) #3

declare dso_local i32 @printf(i8*, ...) #2


!llvm.module.flags = !{!0}
!llvm.ident = !{!1}

!0 = !{i32 1, !"wchar_size", i32 4}
!1 = !{!"clang version 10.0.0-4ubuntu1 "}
